; Function Attrs: mustprogress nofree norecurse nosync nounwind willreturn memory(argmem: readwrite) uwtable
define internal noundef zeroext i1 @"_ZNSt17_Function_handlerIFvRN4llvm19MachineInstrBuilderEEZNK12_GLOBAL__N_126AArch64InstructionSelector17selectExtractHighERNS0_14MachineOperandEE3$_1E10_M_managerERSt9_Any_dataRKSA_St18_Manager_operation"(ptr nocapture noundef nonnull writeonly align 8 dereferenceable(16) %0, ptr noundef nonnull align 8 dereferenceable(16) %1, i32 noundef %2) #8 align 2 {
  switch i32 %2, label %"_ZNSt14_Function_base13_Base_managerIZNK12_GLOBAL__N_126AArch64InstructionSelector17selectExtractHighERN4llvm14MachineOperandEE3$_1E10_M_managerERSt9_Any_dataRKS8_St18_Manager_operation.exit" [
    i32 1, label %4
    i32 0, label %5
    i32 2, label %6
  ]

4:                                                ; preds = %3
  store ptr %1, ptr %0, align 8
  br label %"_ZNSt14_Function_base13_Base_managerIZNK12_GLOBAL__N_126AArch64InstructionSelector17selectExtractHighERN4llvm14MachineOperandEE3$_1E10_M_managerERSt9_Any_dataRKS8_St18_Manager_operation.exit"

5:                                                ; preds = %3
  store ptr null, ptr %0, align 8
  br label %"_ZNSt14_Function_base13_Base_managerIZNK12_GLOBAL__N_126AArch64InstructionSelector17selectExtractHighERN4llvm14MachineOperandEE3$_1E10_M_managerERSt9_Any_dataRKS8_St18_Manager_operation.exit"

6:                                                ; preds = %3
  %.val = load i32, ptr %1, align 8
  store i32 %.val, ptr %0, align 8
  br label %"_ZNSt14_Function_base13_Base_managerIZNK12_GLOBAL__N_126AArch64InstructionSelector17selectExtractHighERN4llvm14MachineOperandEE3$_1E10_M_managerERSt9_Any_dataRKS8_St18_Manager_operation.exit"

"_ZNSt14_Function_base13_Base_managerIZNK12_GLOBAL__N_126AArch64InstructionSelector17selectExtractHighERN4llvm14MachineOperandEE3$_1E10_M_managerERSt9_Any_dataRKS8_St18_Manager_operation.exit": ; preds = %3, %6, %5, %4
  ret i1 false
}